target datalayout = "e-m:e-p270:32:32-p271:32:32-p272:64:64-i64:64-i128:128-f80:128-n8:16:32:64-S128"
target triple = "x86_64-pc-linux-gnu"

%struct.avifRWData = type { ptr, i64 }
%struct.avifImage = type { i32, i32, i32, i32, i32, i32, [3 x ptr], [3 x i32], i32, ptr, i32, i32, i32, %struct.avifRWData, i16, i16, i16, %struct.avifContentLightLevelInformationBox, i32, %struct.avifPixelAspectRatioBox, %struct.avifCleanApertureBox, %struct.avifImageRotation, %struct.avifImageMirror, %struct.avifRWData, %struct.avifRWData }
%struct.avifContentLightLevelInformationBox = type { i16, i16 }
%struct.avifPixelAspectRatioBox = type { i32, i32 }
%struct.avifCleanApertureBox = type { i32, i32, i32, i32, i32, i32, i32, i32 }
%struct.avifImageRotation = type { i8 }
%struct.avifImageMirror = type { i8 }
%struct.avifRWStream = type { ptr, i64, i64 }
%struct.avifItemPropertyDedup = type { %struct.avifItemPropertyArray, %struct.avifRWStream, %struct.avifRWData, i8 }
%struct.avifItemPropertyArray = type { ptr, i32, i32, i32 }

@.str.78 = private unnamed_addr constant [5 x i8] c"clli\00", align 1

; Function Attrs: nounwind uwtable
define internal void @avifItemPropertyDedupStart(ptr noundef %0) #0 {
  %2 = alloca ptr, align 8
  store ptr %0, ptr %2, align 8
  %3 = load ptr, ptr %2, align 8
  %4 = getelementptr inbounds nuw %struct.avifItemPropertyDedup, ptr %3, i32 0, i32 1
  %5 = load ptr, ptr %2, align 8
  %6 = getelementptr inbounds nuw %struct.avifItemPropertyDedup, ptr %5, i32 0, i32 2
  call void @avifRWStreamStart(ptr noundef %4, ptr noundef %6)
  ret void
}

; Function Attrs: nounwind uwtable
define internal i32 @avifEncoderWriteHDRProperties(ptr noundef %0, ptr noundef %1, ptr noundef %2, ptr noundef %3, ptr noundef %4) #0 {
  %6 = alloca i32, align 4
  %7 = alloca ptr, align 8
  %8 = alloca ptr, align 8
  %9 = alloca ptr, align 8
  %10 = alloca ptr, align 8
  %11 = alloca ptr, align 8
  %12 = alloca i64, align 8
  %13 = alloca i32, align 4
  %14 = alloca i32, align 4
  %15 = alloca i32, align 4
  %16 = alloca i32, align 4
  store ptr %0, ptr %7, align 8
  store ptr %1, ptr %8, align 8
  store ptr %2, ptr %9, align 8
  store ptr %3, ptr %10, align 8
  store ptr %4, ptr %11, align 8
  %17 = load ptr, ptr %9, align 8
  %18 = getelementptr inbounds nuw %struct.avifImage, ptr %17, i32 0, i32 17
  %19 = getelementptr inbounds nuw %struct.avifContentLightLevelInformationBox, ptr %18, i32 0, i32 0
  %20 = load i16, ptr %19, align 2
  %21 = zext i16 %20 to i32
  %22 = icmp ne i32 %21, 0
  br i1 %22, label %30, label %23

23:                                               ; preds = %5
  %24 = load ptr, ptr %9, align 8
  %25 = getelementptr inbounds nuw %struct.avifImage, ptr %24, i32 0, i32 17
  %26 = getelementptr inbounds nuw %struct.avifContentLightLevelInformationBox, ptr %25, i32 0, i32 1
  %27 = load i16, ptr %26, align 2
  %28 = zext i16 %27 to i32
  %29 = icmp ne i32 %28, 0
  br i1 %29, label %30, label %88

30:                                               ; preds = %23, %5
  %31 = load ptr, ptr %11, align 8
  %32 = icmp ne ptr %31, null
  br i1 %32, label %33, label %35

33:                                               ; preds = %30
  %34 = load ptr, ptr %11, align 8
  call void @avifItemPropertyDedupStart(ptr noundef %34)
  br label %35

35:                                               ; preds = %33, %30
  br label %36

36:                                               ; preds = %35
  %37 = load ptr, ptr %7, align 8
  %38 = call i32 @avifRWStreamWriteBox(ptr noundef %37, ptr noundef @.str.78, i64 noundef 0, ptr noundef %12)
  store i32 %38, ptr %13, align 4
  %39 = load i32, ptr %13, align 4
  %40 = icmp ne i32 %39, 0
  br i1 %40, label %41, label %43

41:                                               ; preds = %36
  %42 = load i32, ptr %13, align 4
  store i32 %42, ptr %6, align 4
  br label %89

43:                                               ; preds = %36
  br label %44

44:                                               ; preds = %43
  br label %45

45:                                               ; preds = %44
  %46 = load ptr, ptr %7, align 8
  %47 = load ptr, ptr %9, align 8
  %48 = getelementptr inbounds nuw %struct.avifImage, ptr %47, i32 0, i32 17
  %49 = getelementptr inbounds nuw %struct.avifContentLightLevelInformationBox, ptr %48, i32 0, i32 0
  %50 = load i16, ptr %49, align 2
  %51 = call i32 @avifRWStreamWriteU16(ptr noundef %46, i16 noundef zeroext %50)
  store i32 %51, ptr %14, align 4
  %52 = load i32, ptr %14, align 4
  %53 = icmp ne i32 %52, 0
  br i1 %53, label %54, label %56

54:                                               ; preds = %45
  %55 = load i32, ptr %14, align 4
  store i32 %55, ptr %6, align 4
  br label %89

56:                                               ; preds = %45
  br label %57

57:                                               ; preds = %56
  br label %58

58:                                               ; preds = %57
  %59 = load ptr, ptr %7, align 8
  %60 = load ptr, ptr %9, align 8
  %61 = getelementptr inbounds nuw %struct.avifImage, ptr %60, i32 0, i32 17
  %62 = getelementptr inbounds nuw %struct.avifContentLightLevelInformationBox, ptr %61, i32 0, i32 1
  %63 = load i16, ptr %62, align 2
  %64 = call i32 @avifRWStreamWriteU16(ptr noundef %59, i16 noundef zeroext %63)
  store i32 %64, ptr %15, align 4
  %65 = load i32, ptr %15, align 4
  %66 = icmp ne i32 %65, 0
  br i1 %66, label %67, label %69

67:                                               ; preds = %58
  %68 = load i32, ptr %15, align 4
  store i32 %68, ptr %6, align 4
  br label %89

69:                                               ; preds = %58
  br label %70

70:                                               ; preds = %69
  %71 = load ptr, ptr %7, align 8
  %72 = load i64, ptr %12, align 8
  call void @avifRWStreamFinishBox(ptr noundef %71, i64 noundef %72)
  %73 = load ptr, ptr %11, align 8
  %74 = icmp ne ptr %73, null
  br i1 %74, label %75, label %87

75:                                               ; preds = %70
  br label %76

76:                                               ; preds = %75
  %77 = load ptr, ptr %11, align 8
  %78 = load ptr, ptr %8, align 8
  %79 = load ptr, ptr %10, align 8
  %80 = call i32 @avifItemPropertyDedupFinish(ptr noundef %77, ptr noundef %78, ptr noundef %79, i32 noundef 0)
  store i32 %80, ptr %16, align 4
  %81 = load i32, ptr %16, align 4
  %82 = icmp ne i32 %81, 0
  br i1 %82, label %83, label %85

83:                                               ; preds = %76
  %84 = load i32, ptr %16, align 4
  store i32 %84, ptr %6, align 4
  br label %89

85:                                               ; preds = %76
  br label %86

86:                                               ; preds = %85
  br label %87

87:                                               ; preds = %86, %70
  br label %88

88:                                               ; preds = %87, %23
  store i32 0, ptr %6, align 4
  br label %89

89:                                               ; preds = %88, %83, %67, %54, %41
  %90 = load i32, ptr %6, align 4
  ret i32 %90
}