; Function Attrs: nounwind uwtable
define internal fastcc i32 @avifEncoderWriteHDRProperties(ptr noundef %0, ptr noundef %1, ptr nocapture noundef readonly %2, ptr nocapture noundef %3, ptr noundef %4) unnamed_addr #1 {
  %6 = alloca i64, align 8
  %7 = getelementptr inbounds nuw i8, ptr %2, i64 110
  %8 = load i16, ptr %7, align 2
  %.not = icmp eq i16 %8, 0
  br i1 %.not, label %9, label %12

9:                                                ; preds = %5
  %10 = getelementptr inbounds i8, ptr %2, i64 112
  %11 = load i16, ptr %10, align 2
  %.not27 = icmp eq i16 %11, 0
  br i1 %.not27, label %29, label %12

12:                                               ; preds = %9, %5
  %.not28 = icmp eq ptr %4, null
  br i1 %.not28, label %16, label %13

13:                                               ; preds = %12
  %14 = getelementptr inbounds nuw i8, ptr %4, i64 24
  %15 = getelementptr inbounds nuw i8, ptr %4, i64 48
  tail call void @avifRWStreamStart(ptr noundef nonnull %14, ptr noundef nonnull %15) #13
  br label %16

16:                                               ; preds = %12, %13
  %17 = call i32 @avifRWStreamWriteBox(ptr noundef %0, ptr noundef nonnull @.str.78, i64 noundef 0, ptr noundef nonnull %6) #13
  %.not29 = icmp eq i32 %17, 0
  br i1 %.not29, label %18, label %30

18:                                               ; preds = %16
  %19 = load i16, ptr %7, align 2
  %20 = call i32 @avifRWStreamWriteU16(ptr noundef %0, i16 noundef zeroext %19) #13
  %.not30 = icmp eq i32 %20, 0
  br i1 %.not30, label %21, label %30

21:                                               ; preds = %18
  %22 = getelementptr inbounds i8, ptr %2, i64 112
  %23 = load i16, ptr %22, align 2
  %24 = call i32 @avifRWStreamWriteU16(ptr noundef %0, i16 noundef zeroext %23) #13
  %.not31 = icmp eq i32 %24, 0
  br i1 %.not31, label %25, label %30

25:                                               ; preds = %21
  %26 = load i64, ptr %6, align 8
  call void @avifRWStreamFinishBox(ptr noundef %0, i64 noundef %26) #13
  br i1 %.not28, label %29, label %27

27:                                               ; preds = %25
  %28 = call fastcc i32 @avifItemPropertyDedupFinish(ptr noundef nonnull %4, ptr noundef %1, ptr noundef %3, i32 noundef 0)
  %.not32 = icmp eq i32 %28, 0
  br i1 %.not32, label %29, label %30

29:                                               ; preds = %25, %27, %9
  br label %30

30:                                               ; preds = %27, %21, %18, %16, %29
  %.0 = phi i32 [ 0, %29 ], [ %17, %16 ], [ %20, %18 ], [ %24, %21 ], [ %28, %27 ]
  ret i32 %.0
}